target datalayout = "e-m:e-p270:32:32-p271:32:32-p272:64:64-i64:64-i128:128-f80:128-n8:16:32:64-S128"
target triple = "x86_64-pc-linux-gnu"

%"class.cv::Size_" = type { i32, i32 }
%"class.cv::Mat" = type { i32, i32, i32, i32, ptr, ptr, ptr, ptr, ptr, ptr, %"struct.cv::MatSize", %"struct.cv::MatStep" }
%"struct.cv::MatSize" = type { ptr }
%"struct.cv::MatStep" = type { ptr, [2 x i64] }
%"class.cv::Vec.57" = type { %"class.cv::Matx.58" }
%"class.cv::Matx.58" = type { [3 x i8] }

; Function Attrs: mustprogress nounwind uwtable
define linkonce_odr hidden void @_ZN2cv5Size_IiEC2Eii(ptr noundef nonnull align 4 dereferenceable(8) %0, i32 noundef %1, i32 noundef %2) unnamed_addr #5 comdat align 2 {
  %4 = alloca ptr, align 8
  %5 = alloca i32, align 4
  %6 = alloca i32, align 4
  store ptr %0, ptr %4, align 8
  store i32 %1, ptr %5, align 4
  store i32 %2, ptr %6, align 4
  %7 = load ptr, ptr %4, align 8
  %8 = getelementptr inbounds %"class.cv::Size_", ptr %7, i32 0, i32 0
  %9 = load i32, ptr %5, align 4
  store i32 %9, ptr %8, align 4
  %10 = getelementptr inbounds %"class.cv::Size_", ptr %7, i32 0, i32 1
  %11 = load i32, ptr %6, align 4
  store i32 %11, ptr %10, align 4
  ret void
}

; Function Attrs: mustprogress nounwind uwtable
define linkonce_odr hidden noundef nonnull align 1 dereferenceable(1) ptr @_ZN2cv3VecIhLi3EEixEi(ptr noundef nonnull align 1 dereferenceable(3) %0, i32 noundef %1) #5 comdat align 2 {
  %3 = alloca ptr, align 8
  %4 = alloca i32, align 4
  store ptr %0, ptr %3, align 8
  store i32 %1, ptr %4, align 4
  %5 = load ptr, ptr %3, align 8
  %6 = getelementptr inbounds %"class.cv::Matx.58", ptr %5, i32 0, i32 0
  %7 = load i32, ptr %4, align 4
  %8 = sext i32 %7 to i64
  %9 = getelementptr inbounds [3 x i8], ptr %6, i64 0, i64 %8
  ret ptr %9
}

; Function Attrs: mustprogress nounwind uwtable
define linkonce_odr hidden noundef ptr @_ZN2cv3Mat3ptrINS_3VecIhLi3EEEEEPT_i(ptr noundef nonnull align 8 dereferenceable(96) %0, i32 noundef %1) #5 comdat align 2 {
  %3 = alloca ptr, align 8
  %4 = alloca i32, align 4
  store ptr %0, ptr %3, align 8
  store i32 %1, ptr %4, align 4
  %5 = load ptr, ptr %3, align 8
  %6 = getelementptr inbounds %"class.cv::Mat", ptr %5, i32 0, i32 4
  %7 = load ptr, ptr %6, align 8
  %8 = getelementptr inbounds %"class.cv::Mat", ptr %5, i32 0, i32 11
  %9 = getelementptr inbounds %"struct.cv::MatStep", ptr %8, i32 0, i32 0
  %10 = load ptr, ptr %9, align 8
  %11 = getelementptr inbounds i64, ptr %10, i64 0
  %12 = load i64, ptr %11, align 8
  %13 = load i32, ptr %4, align 4
  %14 = sext i32 %13 to i64
  %15 = mul i64 %12, %14
  %16 = getelementptr inbounds i8, ptr %7, i64 %15
  ret ptr %16
}

; Function Attrs: mustprogress nounwind uwtable
define linkonce_odr hidden noundef ptr @_ZNK2cv3Mat3ptrEi(ptr noundef nonnull align 8 dereferenceable(96) %0, i32 noundef %1) #5 comdat align 2 {
  %3 = alloca ptr, align 8
  %4 = alloca i32, align 4
  store ptr %0, ptr %3, align 8
  store i32 %1, ptr %4, align 4
  %5 = load ptr, ptr %3, align 8
  %6 = getelementptr inbounds %"class.cv::Mat", ptr %5, i32 0, i32 4
  %7 = load ptr, ptr %6, align 8
  %8 = getelementptr inbounds %"class.cv::Mat", ptr %5, i32 0, i32 11
  %9 = getelementptr inbounds %"struct.cv::MatStep", ptr %8, i32 0, i32 0
  %10 = load ptr, ptr %9, align 8
  %11 = getelementptr inbounds i64, ptr %10, i64 0
  %12 = load i64, ptr %11, align 8
  %13 = load i32, ptr %4, align 4
  %14 = sext i32 %13 to i64
  %15 = mul i64 %12, %14
  %16 = getelementptr inbounds i8, ptr %7, i64 %15
  ret ptr %16
}

; Function Attrs: mustprogress uwtable
define linkonce_odr hidden i64 @_ZNK2cv7MatSizeclEv(ptr noundef nonnull align 8 dereferenceable(8) %0) #6 comdat align 2 {
  %2 = alloca %"class.cv::Size_", align 4
  %3 = alloca ptr, align 8
  store ptr %0, ptr %3, align 8
  %4 = load ptr, ptr %3, align 8
  %5 = getelementptr inbounds %"struct.cv::MatSize", ptr %4, i32 0, i32 0
  %6 = load ptr, ptr %5, align 8
  %7 = getelementptr inbounds i32, ptr %6, i64 1
  %8 = load i32, ptr %7, align 4
  %9 = getelementptr inbounds %"struct.cv::MatSize", ptr %4, i32 0, i32 0
  %10 = load ptr, ptr %9, align 8
  %11 = getelementptr inbounds i32, ptr %10, i64 0
  %12 = load i32, ptr %11, align 4
  call void @_ZN2cv5Size_IiEC2Eii(ptr noundef nonnull align 4 dereferenceable(8) %2, i32 noundef %8, i32 noundef %12)
  %13 = load i64, ptr %2, align 4
  ret i64 %13
}

; Function Attrs: mustprogress uwtable
define hidden void @_Z16displayQuantizedRKN2cv3MatE(ptr dead_on_unwind noalias writable sret(%"class.cv::Mat") align 8 %0, ptr noundef nonnull align 8 dereferenceable(96) %1) #6 personality ptr @__gxx_personality_v0 {
  %3 = alloca ptr, align 8
  %4 = alloca ptr, align 8
  %5 = alloca i1, align 1
  %6 = alloca %"class.cv::Size_", align 4
  %7 = alloca i32, align 4
  %8 = alloca ptr, align 8
  %9 = alloca ptr, align 8
  %10 = alloca i32, align 4
  %11 = alloca ptr, align 8
  %12 = alloca i32, align 4
  %13 = alloca ptr, align 8
  store ptr %0, ptr %3, align 8
  store ptr %1, ptr %4, align 8
  store i1 false, ptr %5, align 1
  %14 = load ptr, ptr %4, align 8
  %15 = getelementptr inbounds %"class.cv::Mat", ptr %14, i32 0, i32 10
  %16 = call i64 @_ZNK2cv7MatSizeclEv(ptr noundef nonnull align 8 dereferenceable(8) %15)
  store i64 %16, ptr %6, align 4
  %17 = load i64, ptr %6, align 4
  call void @_ZN2cv3MatC1ENS_5Size_IiEEi(ptr noundef nonnull align 8 dereferenceable(96) %0, i64 %17, i32 noundef 16)
  store i32 0, ptr %7, align 4
  br label %18

18:                                               ; preds = %168, %2
  %19 = load i32, ptr %7, align 4
  %20 = load ptr, ptr %4, align 8
  %21 = getelementptr inbounds %"class.cv::Mat", ptr %20, i32 0, i32 2
  %22 = load i32, ptr %21, align 8
  %23 = icmp slt i32 %19, %22
  br i1 %23, label %24, label %171

24:                                               ; preds = %18
  %25 = load ptr, ptr %4, align 8
  %26 = load i32, ptr %7, align 4
  %27 = invoke noundef ptr @_ZNK2cv3Mat3ptrEi(ptr noundef nonnull align 8 dereferenceable(96) %25, i32 noundef %26)
          to label %28 unwind label %49

28:                                               ; preds = %24
  store ptr %27, ptr %8, align 8
  %29 = load i32, ptr %7, align 4
  %30 = invoke noundef ptr @_ZN2cv3Mat3ptrINS_3VecIhLi3EEEEEPT_i(ptr noundef nonnull align 8 dereferenceable(96) %0, i32 noundef %29)
          to label %31 unwind label %49

31:                                               ; preds = %28
  store ptr %30, ptr %11, align 8
  store i32 0, ptr %12, align 4
  br label %32

32:                                               ; preds = %164, %31
  %33 = load i32, ptr %12, align 4
  %34 = load ptr, ptr %4, align 8
  %35 = getelementptr inbounds %"class.cv::Mat", ptr %34, i32 0, i32 3
  %36 = load i32, ptr %35, align 4
  %37 = icmp slt i32 %33, %36
  br i1 %37, label %38, label %167

38:                                               ; preds = %32
  %39 = load ptr, ptr %11, align 8
  %40 = load i32, ptr %12, align 4
  %41 = sext i32 %40 to i64
  %42 = getelementptr inbounds %"class.cv::Vec.57", ptr %39, i64 %41
  store ptr %42, ptr %13, align 8
  %43 = load ptr, ptr %8, align 8
  %44 = load i32, ptr %12, align 4
  %45 = sext i32 %44 to i64
  %46 = getelementptr inbounds i8, ptr %43, i64 %45
  %47 = load i8, ptr %46, align 1
  %48 = zext i8 %47 to i32
  switch i32 %48, label %153 [
    i32 0, label %53
    i32 1, label %63
    i32 2, label %73
    i32 4, label %83
    i32 8, label %93
    i32 16, label %103
    i32 32, label %113
    i32 64, label %123
    i32 128, label %133
    i32 255, label %143
  ]

49:                                               ; preds = %159, %156, %153, %149, %146, %143, %139, %136, %133, %129, %126, %123, %119, %116, %113, %109, %106, %103, %99, %96, %93, %89, %86, %83, %79, %76, %73, %69, %66, %63, %59, %56, %53, %28, %24
  %50 = landingpad { ptr, i32 }
          cleanup
  %51 = extractvalue { ptr, i32 } %50, 0
  store ptr %51, ptr %9, align 8
  %52 = extractvalue { ptr, i32 } %50, 1
  store i32 %52, ptr %10, align 4
  call void @_ZN2cv3MatD1Ev(ptr noundef nonnull align 8 dereferenceable(96) %0) #3
  br label %175

53:                                               ; preds = %38
  %54 = load ptr, ptr %13, align 8
  %55 = invoke noundef nonnull align 1 dereferenceable(1) ptr @_ZN2cv3VecIhLi3EEixEi(ptr noundef nonnull align 1 dereferenceable(3) %54, i32 noundef 0)
          to label %56 unwind label %49

56:                                               ; preds = %53
  store i8 0, ptr %55, align 1
  %57 = load ptr, ptr %13, align 8
  %58 = invoke noundef nonnull align 1 dereferenceable(1) ptr @_ZN2cv3VecIhLi3EEixEi(ptr noundef nonnull align 1 dereferenceable(3) %57, i32 noundef 1)
          to label %59 unwind label %49

59:                                               ; preds = %56
  store i8 0, ptr %58, align 1
  %60 = load ptr, ptr %13, align 8
  %61 = invoke noundef nonnull align 1 dereferenceable(1) ptr @_ZN2cv3VecIhLi3EEixEi(ptr noundef nonnull align 1 dereferenceable(3) %60, i32 noundef 2)
          to label %62 unwind label %49

62:                                               ; preds = %59
  store i8 0, ptr %61, align 1
  br label %163

63:                                               ; preds = %38
  %64 = load ptr, ptr %13, align 8
  %65 = invoke noundef nonnull align 1 dereferenceable(1) ptr @_ZN2cv3VecIhLi3EEixEi(ptr noundef nonnull align 1 dereferenceable(3) %64, i32 noundef 0)
          to label %66 unwind label %49

66:                                               ; preds = %63
  store i8 55, ptr %65, align 1
  %67 = load ptr, ptr %13, align 8
  %68 = invoke noundef nonnull align 1 dereferenceable(1) ptr @_ZN2cv3VecIhLi3EEixEi(ptr noundef nonnull align 1 dereferenceable(3) %67, i32 noundef 1)
          to label %69 unwind label %49

69:                                               ; preds = %66
  store i8 55, ptr %68, align 1
  %70 = load ptr, ptr %13, align 8
  %71 = invoke noundef nonnull align 1 dereferenceable(1) ptr @_ZN2cv3VecIhLi3EEixEi(ptr noundef nonnull align 1 dereferenceable(3) %70, i32 noundef 2)
          to label %72 unwind label %49

72:                                               ; preds = %69
  store i8 55, ptr %71, align 1
  br label %163

73:                                               ; preds = %38
  %74 = load ptr, ptr %13, align 8
  %75 = invoke noundef nonnull align 1 dereferenceable(1) ptr @_ZN2cv3VecIhLi3EEixEi(ptr noundef nonnull align 1 dereferenceable(3) %74, i32 noundef 0)
          to label %76 unwind label %49

76:                                               ; preds = %73
  store i8 80, ptr %75, align 1
  %77 = load ptr, ptr %13, align 8
  %78 = invoke noundef nonnull align 1 dereferenceable(1) ptr @_ZN2cv3VecIhLi3EEixEi(ptr noundef nonnull align 1 dereferenceable(3) %77, i32 noundef 1)
          to label %79 unwind label %49

79:                                               ; preds = %76
  store i8 80, ptr %78, align 1
  %80 = load ptr, ptr %13, align 8
  %81 = invoke noundef nonnull align 1 dereferenceable(1) ptr @_ZN2cv3VecIhLi3EEixEi(ptr noundef nonnull align 1 dereferenceable(3) %80, i32 noundef 2)
          to label %82 unwind label %49

82:                                               ; preds = %79
  store i8 80, ptr %81, align 1
  br label %163

83:                                               ; preds = %38
  %84 = load ptr, ptr %13, align 8
  %85 = invoke noundef nonnull align 1 dereferenceable(1) ptr @_ZN2cv3VecIhLi3EEixEi(ptr noundef nonnull align 1 dereferenceable(3) %84, i32 noundef 0)
          to label %86 unwind label %49

86:                                               ; preds = %83
  store i8 105, ptr %85, align 1
  %87 = load ptr, ptr %13, align 8
  %88 = invoke noundef nonnull align 1 dereferenceable(1) ptr @_ZN2cv3VecIhLi3EEixEi(ptr noundef nonnull align 1 dereferenceable(3) %87, i32 noundef 1)
          to label %89 unwind label %49

89:                                               ; preds = %86
  store i8 105, ptr %88, align 1
  %90 = load ptr, ptr %13, align 8
  %91 = invoke noundef nonnull align 1 dereferenceable(1) ptr @_ZN2cv3VecIhLi3EEixEi(ptr noundef nonnull align 1 dereferenceable(3) %90, i32 noundef 2)
          to label %92 unwind label %49

92:                                               ; preds = %89
  store i8 105, ptr %91, align 1
  br label %163

93:                                               ; preds = %38
  %94 = load ptr, ptr %13, align 8
  %95 = invoke noundef nonnull align 1 dereferenceable(1) ptr @_ZN2cv3VecIhLi3EEixEi(ptr noundef nonnull align 1 dereferenceable(3) %94, i32 noundef 0)
          to label %96 unwind label %49

96:                                               ; preds = %93
  store i8 -126, ptr %95, align 1
  %97 = load ptr, ptr %13, align 8
  %98 = invoke noundef nonnull align 1 dereferenceable(1) ptr @_ZN2cv3VecIhLi3EEixEi(ptr noundef nonnull align 1 dereferenceable(3) %97, i32 noundef 1)
          to label %99 unwind label %49

99:                                               ; preds = %96
  store i8 -126, ptr %98, align 1
  %100 = load ptr, ptr %13, align 8
  %101 = invoke noundef nonnull align 1 dereferenceable(1) ptr @_ZN2cv3VecIhLi3EEixEi(ptr noundef nonnull align 1 dereferenceable(3) %100, i32 noundef 2)
          to label %102 unwind label %49

102:                                              ; preds = %99
  store i8 -126, ptr %101, align 1
  br label %163

103:                                              ; preds = %38
  %104 = load ptr, ptr %13, align 8
  %105 = invoke noundef nonnull align 1 dereferenceable(1) ptr @_ZN2cv3VecIhLi3EEixEi(ptr noundef nonnull align 1 dereferenceable(3) %104, i32 noundef 0)
          to label %106 unwind label %49

106:                                              ; preds = %103
  store i8 -101, ptr %105, align 1
  %107 = load ptr, ptr %13, align 8
  %108 = invoke noundef nonnull align 1 dereferenceable(1) ptr @_ZN2cv3VecIhLi3EEixEi(ptr noundef nonnull align 1 dereferenceable(3) %107, i32 noundef 1)
          to label %109 unwind label %49

109:                                              ; preds = %106
  store i8 -101, ptr %108, align 1
  %110 = load ptr, ptr %13, align 8
  %111 = invoke noundef nonnull align 1 dereferenceable(1) ptr @_ZN2cv3VecIhLi3EEixEi(ptr noundef nonnull align 1 dereferenceable(3) %110, i32 noundef 2)
          to label %112 unwind label %49

112:                                              ; preds = %109
  store i8 -101, ptr %111, align 1
  br label %163

113:                                              ; preds = %38
  %114 = load ptr, ptr %13, align 8
  %115 = invoke noundef nonnull align 1 dereferenceable(1) ptr @_ZN2cv3VecIhLi3EEixEi(ptr noundef nonnull align 1 dereferenceable(3) %114, i32 noundef 0)
          to label %116 unwind label %49

116:                                              ; preds = %113
  store i8 -76, ptr %115, align 1
  %117 = load ptr, ptr %13, align 8
  %118 = invoke noundef nonnull align 1 dereferenceable(1) ptr @_ZN2cv3VecIhLi3EEixEi(ptr noundef nonnull align 1 dereferenceable(3) %117, i32 noundef 1)
          to label %119 unwind label %49

119:                                              ; preds = %116
  store i8 -76, ptr %118, align 1
  %120 = load ptr, ptr %13, align 8
  %121 = invoke noundef nonnull align 1 dereferenceable(1) ptr @_ZN2cv3VecIhLi3EEixEi(ptr noundef nonnull align 1 dereferenceable(3) %120, i32 noundef 2)
          to label %122 unwind label %49

122:                                              ; preds = %119
  store i8 -76, ptr %121, align 1
  br label %163

123:                                              ; preds = %38
  %124 = load ptr, ptr %13, align 8
  %125 = invoke noundef nonnull align 1 dereferenceable(1) ptr @_ZN2cv3VecIhLi3EEixEi(ptr noundef nonnull align 1 dereferenceable(3) %124, i32 noundef 0)
          to label %126 unwind label %49

126:                                              ; preds = %123
  store i8 -51, ptr %125, align 1
  %127 = load ptr, ptr %13, align 8
  %128 = invoke noundef nonnull align 1 dereferenceable(1) ptr @_ZN2cv3VecIhLi3EEixEi(ptr noundef nonnull align 1 dereferenceable(3) %127, i32 noundef 1)
          to label %129 unwind label %49

129:                                              ; preds = %126
  store i8 -51, ptr %128, align 1
  %130 = load ptr, ptr %13, align 8
  %131 = invoke noundef nonnull align 1 dereferenceable(1) ptr @_ZN2cv3VecIhLi3EEixEi(ptr noundef nonnull align 1 dereferenceable(3) %130, i32 noundef 2)
          to label %132 unwind label %49

132:                                              ; preds = %129
  store i8 -51, ptr %131, align 1
  br label %163

133:                                              ; preds = %38
  %134 = load ptr, ptr %13, align 8
  %135 = invoke noundef nonnull align 1 dereferenceable(1) ptr @_ZN2cv3VecIhLi3EEixEi(ptr noundef nonnull align 1 dereferenceable(3) %134, i32 noundef 0)
          to label %136 unwind label %49

136:                                              ; preds = %133
  store i8 -26, ptr %135, align 1
  %137 = load ptr, ptr %13, align 8
  %138 = invoke noundef nonnull align 1 dereferenceable(1) ptr @_ZN2cv3VecIhLi3EEixEi(ptr noundef nonnull align 1 dereferenceable(3) %137, i32 noundef 1)
          to label %139 unwind label %49

139:                                              ; preds = %136
  store i8 -26, ptr %138, align 1
  %140 = load ptr, ptr %13, align 8
  %141 = invoke noundef nonnull align 1 dereferenceable(1) ptr @_ZN2cv3VecIhLi3EEixEi(ptr noundef nonnull align 1 dereferenceable(3) %140, i32 noundef 2)
          to label %142 unwind label %49

142:                                              ; preds = %139
  store i8 -26, ptr %141, align 1
  br label %163

143:                                              ; preds = %38
  %144 = load ptr, ptr %13, align 8
  %145 = invoke noundef nonnull align 1 dereferenceable(1) ptr @_ZN2cv3VecIhLi3EEixEi(ptr noundef nonnull align 1 dereferenceable(3) %144, i32 noundef 0)
          to label %146 unwind label %49

146:                                              ; preds = %143
  store i8 0, ptr %145, align 1
  %147 = load ptr, ptr %13, align 8
  %148 = invoke noundef nonnull align 1 dereferenceable(1) ptr @_ZN2cv3VecIhLi3EEixEi(ptr noundef nonnull align 1 dereferenceable(3) %147, i32 noundef 1)
          to label %149 unwind label %49

149:                                              ; preds = %146
  store i8 0, ptr %148, align 1
  %150 = load ptr, ptr %13, align 8
  %151 = invoke noundef nonnull align 1 dereferenceable(1) ptr @_ZN2cv3VecIhLi3EEixEi(ptr noundef nonnull align 1 dereferenceable(3) %150, i32 noundef 2)
          to label %152 unwind label %49

152:                                              ; preds = %149
  store i8 -1, ptr %151, align 1
  br label %163

153:                                              ; preds = %38
  %154 = load ptr, ptr %13, align 8
  %155 = invoke noundef nonnull align 1 dereferenceable(1) ptr @_ZN2cv3VecIhLi3EEixEi(ptr noundef nonnull align 1 dereferenceable(3) %154, i32 noundef 0)
          to label %156 unwind label %49

156:                                              ; preds = %153
  store i8 0, ptr %155, align 1
  %157 = load ptr, ptr %13, align 8
  %158 = invoke noundef nonnull align 1 dereferenceable(1) ptr @_ZN2cv3VecIhLi3EEixEi(ptr noundef nonnull align 1 dereferenceable(3) %157, i32 noundef 1)
          to label %159 unwind label %49

159:                                              ; preds = %156
  store i8 -1, ptr %158, align 1
  %160 = load ptr, ptr %13, align 8
  %161 = invoke noundef nonnull align 1 dereferenceable(1) ptr @_ZN2cv3VecIhLi3EEixEi(ptr noundef nonnull align 1 dereferenceable(3) %160, i32 noundef 2)
          to label %162 unwind label %49

162:                                              ; preds = %159
  store i8 0, ptr %161, align 1
  br label %163

163:                                              ; preds = %162, %152, %142, %132, %122, %112, %102, %92, %82, %72, %62
  br label %164

164:                                              ; preds = %163
  %165 = load i32, ptr %12, align 4
  %166 = add nsw i32 %165, 1
  store i32 %166, ptr %12, align 4
  br label %32, !llvm.loop !31

167:                                              ; preds = %32
  br label %168

168:                                              ; preds = %167
  %169 = load i32, ptr %7, align 4
  %170 = add nsw i32 %169, 1
  store i32 %170, ptr %7, align 4
  br label %18, !llvm.loop !32

171:                                              ; preds = %18
  store i1 true, ptr %5, align 1
  %172 = load i1, ptr %5, align 1
  br i1 %172, label %174, label %173

173:                                              ; preds = %171
  call void @_ZN2cv3MatD1Ev(ptr noundef nonnull align 8 dereferenceable(96) %0) #3
  br label %174

174:                                              ; preds = %173, %171
  ret void

175:                                              ; preds = %49
  %176 = load ptr, ptr %9, align 8
  %177 = load i32, ptr %10, align 4
  %178 = insertvalue { ptr, i32 } poison, ptr %176, 0
  %179 = insertvalue { ptr, i32 } %178, i32 %177, 1
  resume { ptr, i32 } %179
}