; Function Attrs: mustprogress uwtable
define hidden void @_Z16displayQuantizedRKN2cv3MatE(ptr dead_on_unwind noalias nonnull writable sret(%"class.cv::Mat") align 8 %0, ptr nocapture noundef nonnull readonly align 8 dereferenceable(96) %1) local_unnamed_addr #4 personality ptr @__gxx_personality_v0 {
  %3 = getelementptr inbounds i8, ptr %1, i64 64
  %4 = load ptr, ptr %3, align 8
  %5 = getelementptr inbounds i8, ptr %4, i64 4
  %6 = load i32, ptr %5, align 4
  %7 = load i32, ptr %4, align 4
  %.sroa.2.0.insert.ext.i = zext i32 %7 to i64
  %.sroa.2.0.insert.shift.i = shl nuw i64 %.sroa.2.0.insert.ext.i, 32
  %.sroa.0.0.insert.ext.i = zext i32 %6 to i64
  %.sroa.0.0.insert.insert.i = or disjoint i64 %.sroa.2.0.insert.shift.i, %.sroa.0.0.insert.ext.i
  tail call void @_ZN2cv3MatC1ENS_5Size_IiEEi(ptr noundef nonnull align 8 dereferenceable(96) %0, i64 %.sroa.0.0.insert.insert.i, i32 noundef 16)
  %8 = getelementptr inbounds i8, ptr %1, i64 8
  %9 = load i32, ptr %8, align 8
  %10 = icmp sgt i32 %9, 0
  br i1 %10, label %.lr.ph51, label %._crit_edge52

.lr.ph51:                                         ; preds = %2
  %11 = getelementptr inbounds i8, ptr %1, i64 16
  %12 = getelementptr inbounds i8, ptr %1, i64 72
  %13 = getelementptr inbounds i8, ptr %0, i64 16
  %14 = getelementptr inbounds i8, ptr %0, i64 72
  %15 = getelementptr inbounds i8, ptr %1, i64 12
  %16 = load i32, ptr %15, align 4
  %17 = icmp sgt i32 %16, 0
  br i1 %17, label %.lr.ph51.split, label %._crit_edge52

.lr.ph51.split:                                   ; preds = %.lr.ph51, %._crit_edge
  %18 = phi i32 [ %50, %._crit_edge ], [ %9, %.lr.ph51 ]
  %19 = phi i32 [ %51, %._crit_edge ], [ %16, %.lr.ph51 ]
  %indvars.iv55 = phi i64 [ %indvars.iv.next56, %._crit_edge ], [ 0, %.lr.ph51 ]
  %20 = load ptr, ptr %11, align 8
  %21 = load ptr, ptr %12, align 8
  %22 = load i64, ptr %21, align 8
  %23 = mul i64 %22, %indvars.iv55
  %24 = getelementptr inbounds i8, ptr %20, i64 %23
  %25 = load ptr, ptr %13, align 8
  %26 = load ptr, ptr %14, align 8
  %27 = load i64, ptr %26, align 8
  %28 = mul i64 %27, %indvars.iv55
  %29 = getelementptr inbounds i8, ptr %25, i64 %28
  %30 = icmp sgt i32 %19, 0
  br i1 %30, label %.lr.ph, label %._crit_edge

.lr.ph:                                           ; preds = %.lr.ph51.split, %46
  %indvars.iv = phi i64 [ %indvars.iv.next, %46 ], [ 0, %.lr.ph51.split ]
  %31 = getelementptr inbounds %"class.cv::Vec.57", ptr %29, i64 %indvars.iv
  %32 = getelementptr inbounds i8, ptr %24, i64 %indvars.iv
  %33 = load i8, ptr %32, align 1
  %34 = getelementptr inbounds i8, ptr %31, i64 1
  %35 = getelementptr inbounds i8, ptr %31, i64 2
  switch i8 %33, label %45 [
    i8 0, label %46
    i8 1, label %36
    i8 2, label %37
    i8 4, label %38
    i8 8, label %39
    i8 16, label %40
    i8 32, label %41
    i8 64, label %42
    i8 -128, label %43
    i8 -1, label %44
  ]

36:                                               ; preds = %.lr.ph
  br label %46

37:                                               ; preds = %.lr.ph
  br label %46

38:                                               ; preds = %.lr.ph
  br label %46

39:                                               ; preds = %.lr.ph
  br label %46

40:                                               ; preds = %.lr.ph
  br label %46

41:                                               ; preds = %.lr.ph
  br label %46

42:                                               ; preds = %.lr.ph
  br label %46

43:                                               ; preds = %.lr.ph
  br label %46

44:                                               ; preds = %.lr.ph
  br label %46

45:                                               ; preds = %.lr.ph
  br label %46

46:                                               ; preds = %.lr.ph, %36, %37, %38, %39, %40, %41, %42, %43, %44, %45
  %.sink59 = phi i8 [ 55, %36 ], [ 80, %37 ], [ 105, %38 ], [ -126, %39 ], [ -101, %40 ], [ -76, %41 ], [ -51, %42 ], [ -26, %43 ], [ 0, %44 ], [ 0, %45 ], [ %33, %.lr.ph ]
  %.sink58 = phi i8 [ 55, %36 ], [ 80, %37 ], [ 105, %38 ], [ -126, %39 ], [ -101, %40 ], [ -76, %41 ], [ -51, %42 ], [ -26, %43 ], [ 0, %44 ], [ -1, %45 ], [ %33, %.lr.ph ]
  %.sink = phi i8 [ 55, %36 ], [ 80, %37 ], [ 105, %38 ], [ -126, %39 ], [ -101, %40 ], [ -76, %41 ], [ -51, %42 ], [ -26, %43 ], [ %33, %44 ], [ 0, %45 ], [ %33, %.lr.ph ]
  store i8 %.sink59, ptr %31, align 1
  store i8 %.sink58, ptr %34, align 1
  store i8 %.sink, ptr %35, align 1
  %indvars.iv.next = add nuw nsw i64 %indvars.iv, 1
  %47 = load i32, ptr %15, align 4
  %48 = sext i32 %47 to i64
  %49 = icmp slt i64 %indvars.iv.next, %48
  br i1 %49, label %.lr.ph, label %._crit_edge.loopexit, !llvm.loop !62

._crit_edge.loopexit:                             ; preds = %46
  %.pre = load i32, ptr %8, align 8
  br label %._crit_edge

._crit_edge:                                      ; preds = %._crit_edge.loopexit, %.lr.ph51.split
  %50 = phi i32 [ %.pre, %._crit_edge.loopexit ], [ %18, %.lr.ph51.split ]
  %51 = phi i32 [ %47, %._crit_edge.loopexit ], [ %19, %.lr.ph51.split ]
  %indvars.iv.next56 = add nuw nsw i64 %indvars.iv55, 1
  %52 = sext i32 %50 to i64
  %53 = icmp slt i64 %indvars.iv.next56, %52
  br i1 %53, label %.lr.ph51.split, label %._crit_edge52, !llvm.loop !63

._crit_edge52:                                    ; preds = %._crit_edge, %.lr.ph51, %2
  ret void
}